; Function Attrs: mustprogress uwtable
define internal fastcc noundef zeroext i1 @_ZN12_GLOBAL__N_112StringSorterclERKNSt7__cxx1112basic_stringIcSt11char_traitsIcESaIcEEES8_(ptr noundef nonnull align 8 dereferenceable(97) %0, ptr noundef nonnull align 8 dereferenceable(32) %1, ptr noundef nonnull align 8 dereferenceable(32) %2) unnamed_addr #3 align 2 personality ptr @__gxx_personality_v0 {
  %4 = alloca %"class.std::__cxx11::basic_string", align 8
  %5 = alloca %"class.std::__cxx11::basic_string", align 8
  %6 = alloca %"class.std::__cxx11::basic_string", align 8
  %7 = alloca %"class.std::__cxx11::basic_string", align 8
  call void @llvm.lifetime.start.p0(i64 32, ptr nonnull %5)
  call void @_ZNSt7__cxx1112basic_stringIcSt11char_traitsIcESaIcEEC1ERKS4_(ptr noundef nonnull align 8 dereferenceable(32) %6, ptr noundef nonnull align 8 dereferenceable(32) %1)
  br label %8

8:                                                ; preds = %17, %3
  %.0.idx13.i = phi i64 [ 0, %3 ], [ %.0.add.i, %17 ]
  %.0.ptr14.i = getelementptr inbounds i8, ptr %0, i64 %.0.idx13.i
  %9 = getelementptr inbounds i8, ptr %.0.ptr14.i, i64 16
  %10 = load ptr, ptr %9, align 8, !noalias !272
  %.not.i.i.i.not.i = icmp eq ptr %10, null
  br i1 %.not.i.i.i.not.i, label %17, label %11

11:                                               ; preds = %8
  %12 = getelementptr inbounds i8, ptr %.0.ptr14.i, i64 24
  %13 = load ptr, ptr %12, align 8, !noalias !275
  invoke void %13(ptr dead_on_unwind nonnull writable sret(%"class.std::__cxx11::basic_string") align 8 %5, ptr noundef nonnull align 8 dereferenceable(16) %.0.ptr14.i, ptr noundef nonnull align 8 dereferenceable(32) %6)
          to label %_ZNKSt8functionIFNSt7__cxx1112basic_stringIcSt11char_traitsIcESaIcEEERKS5_EEclES7_.exit.i unwind label %15

_ZNKSt8functionIFNSt7__cxx1112basic_stringIcSt11char_traitsIcESaIcEEERKS5_EEclES7_.exit.i: ; preds = %11
  %14 = call noundef nonnull align 8 dereferenceable(32) ptr @_ZNSt7__cxx1112basic_stringIcSt11char_traitsIcESaIcEEaSEOS4_(ptr noundef nonnull align 8 dereferenceable(32) %6, ptr noundef nonnull align 8 dereferenceable(32) %5) #27
  call void @_ZNSt7__cxx1112basic_stringIcSt11char_traitsIcESaIcEED1Ev(ptr noundef nonnull align 8 dereferenceable(32) %5) #27
  br label %17

common.resume:                                    ; preds = %32, %24, %30, %15
  %common.resume.op = phi { ptr, i32 } [ %16, %15 ], [ %33, %32 ], [ %31, %30 ], [ %25, %24 ]
  call void @_ZNSt7__cxx1112basic_stringIcSt11char_traitsIcESaIcEED1Ev(ptr noundef nonnull align 8 dereferenceable(32) %6) #27
  resume { ptr, i32 } %common.resume.op

15:                                               ; preds = %11
  %16 = landingpad { ptr, i32 }
          cleanup
  br label %common.resume

17:                                               ; preds = %_ZNKSt8functionIFNSt7__cxx1112basic_stringIcSt11char_traitsIcESaIcEEERKS5_EEclES7_.exit.i, %8
  %.0.add.i = add nuw nsw i64 %.0.idx13.i, 32
  %.not.i = icmp eq i64 %.0.add.i, 64
  br i1 %.not.i, label %_ZN12_GLOBAL__N_112StringSorter11ApplyFilterERKNSt7__cxx1112basic_stringIcSt11char_traitsIcESaIcEEE.exit, label %8

_ZN12_GLOBAL__N_112StringSorter11ApplyFilterERKNSt7__cxx1112basic_stringIcSt11char_traitsIcESaIcEEE.exit: ; preds = %17
  call void @llvm.lifetime.end.p0(i64 32, ptr nonnull %5)
  call void @llvm.lifetime.start.p0(i64 32, ptr nonnull %4)
  invoke void @_ZNSt7__cxx1112basic_stringIcSt11char_traitsIcESaIcEEC1ERKS4_(ptr noundef nonnull align 8 dereferenceable(32) %7, ptr noundef nonnull align 8 dereferenceable(32) %2)
          to label %.noexc unwind label %30

.noexc:                                           ; preds = %_ZN12_GLOBAL__N_112StringSorter11ApplyFilterERKNSt7__cxx1112basic_stringIcSt11char_traitsIcESaIcEEE.exit, %26
  %.0.idx13.i8 = phi i64 [ %.0.add.i12, %26 ], [ 0, %_ZN12_GLOBAL__N_112StringSorter11ApplyFilterERKNSt7__cxx1112basic_stringIcSt11char_traitsIcESaIcEEE.exit ]
  %.0.ptr14.i9 = getelementptr inbounds i8, ptr %0, i64 %.0.idx13.i8
  %18 = getelementptr inbounds i8, ptr %.0.ptr14.i9, i64 16
  %19 = load ptr, ptr %18, align 8, !noalias !278
  %.not.i.i.i.not.i10 = icmp eq ptr %19, null
  br i1 %.not.i.i.i.not.i10, label %26, label %20

20:                                               ; preds = %.noexc
  %21 = getelementptr inbounds i8, ptr %.0.ptr14.i9, i64 24
  %22 = load ptr, ptr %21, align 8, !noalias !281
  invoke void %22(ptr dead_on_unwind nonnull writable sret(%"class.std::__cxx11::basic_string") align 8 %4, ptr noundef nonnull align 8 dereferenceable(16) %.0.ptr14.i9, ptr noundef nonnull align 8 dereferenceable(32) %7)
          to label %_ZNKSt8functionIFNSt7__cxx1112basic_stringIcSt11char_traitsIcESaIcEEERKS5_EEclES7_.exit.i11 unwind label %24

_ZNKSt8functionIFNSt7__cxx1112basic_stringIcSt11char_traitsIcESaIcEEERKS5_EEclES7_.exit.i11: ; preds = %20
  %23 = call noundef nonnull align 8 dereferenceable(32) ptr @_ZNSt7__cxx1112basic_stringIcSt11char_traitsIcESaIcEEaSEOS4_(ptr noundef nonnull align 8 dereferenceable(32) %7, ptr noundef nonnull align 8 dereferenceable(32) %4) #27
  call void @_ZNSt7__cxx1112basic_stringIcSt11char_traitsIcESaIcEED1Ev(ptr noundef nonnull align 8 dereferenceable(32) %4) #27
  br label %26

24:                                               ; preds = %20
  %25 = landingpad { ptr, i32 }
          cleanup
  call void @_ZNSt7__cxx1112basic_stringIcSt11char_traitsIcESaIcEED1Ev(ptr noundef nonnull align 8 dereferenceable(32) %7) #27
  br label %common.resume

26:                                               ; preds = %_ZNKSt8functionIFNSt7__cxx1112basic_stringIcSt11char_traitsIcESaIcEEERKS5_EEclES7_.exit.i11, %.noexc
  %.0.add.i12 = add nuw nsw i64 %.0.idx13.i8, 32
  %.not.i13 = icmp eq i64 %.0.add.i12, 64
  br i1 %.not.i13, label %27, label %.noexc

27:                                               ; preds = %26
  call void @llvm.lifetime.end.p0(i64 32, ptr nonnull %4)
  %28 = getelementptr inbounds i8, ptr %0, i64 80
  %29 = load ptr, ptr %28, align 8
  %.not.i.i17 = icmp eq ptr %29, null
  br i1 %.not.i.i17, label %.invoke21, label %.invoke

30:                                               ; preds = %_ZN12_GLOBAL__N_112StringSorter11ApplyFilterERKNSt7__cxx1112basic_stringIcSt11char_traitsIcESaIcEEE.exit
  %31 = landingpad { ptr, i32 }
          cleanup
  br label %common.resume

32:                                               ; preds = %.invoke21, %.invoke
  %33 = landingpad { ptr, i32 }
          cleanup
  call void @_ZNSt7__cxx1112basic_stringIcSt11char_traitsIcESaIcEED1Ev(ptr noundef nonnull align 8 dereferenceable(32) %7) #27
  br label %common.resume

.invoke21:                                        ; preds = %27
  invoke void @_ZSt25__throw_bad_function_callv() #28
          to label %.cont unwind label %32

.cont:                                            ; preds = %.invoke21
  unreachable

.invoke:                                          ; preds = %27
  %34 = getelementptr inbounds i8, ptr %0, i64 96
  %35 = load i8, ptr %34, align 8
  %36 = and i8 %35, 1
  %.not = icmp eq i8 %36, 0
  %.22 = select i1 %.not, ptr %7, ptr %6
  %. = select i1 %.not, ptr %6, ptr %7
  %37 = getelementptr inbounds i8, ptr %0, i64 64
  %38 = getelementptr inbounds i8, ptr %0, i64 88
  %39 = load ptr, ptr %38, align 8
  %40 = invoke noundef zeroext i1 %39(ptr noundef nonnull align 8 dereferenceable(16) %37, ptr noundef nonnull align 8 dereferenceable(32) %., ptr noundef nonnull align 8 dereferenceable(32) %.22)
          to label %_ZNKSt8functionIFbRKNSt7__cxx1112basic_stringIcSt11char_traitsIcESaIcEEES7_EEclES7_S7_.exit unwind label %32

_ZNKSt8functionIFbRKNSt7__cxx1112basic_stringIcSt11char_traitsIcESaIcEEES7_EEclES7_S7_.exit: ; preds = %.invoke
  call void @_ZNSt7__cxx1112basic_stringIcSt11char_traitsIcESaIcEED1Ev(ptr noundef nonnull align 8 dereferenceable(32) %7) #27
  call void @_ZNSt7__cxx1112basic_stringIcSt11char_traitsIcESaIcEED1Ev(ptr noundef nonnull align 8 dereferenceable(32) %6) #27
  ret i1 %40
}